target datalayout = "e-m:e-p270:32:32-p271:32:32-p272:64:64-i64:64-i128:128-f80:128-n8:16:32:64-S128"
target triple = "x86_64-pc-linux-gnu"

; Function Attrs: null_pointer_is_valid sspstrong allocsize(2) uwtable
define ptr @wmem_memdup(ptr noundef %0, ptr noundef %1, i64 noundef %2) #0 {
  %4 = alloca ptr, align 8
  %5 = alloca ptr, align 8
  %6 = alloca ptr, align 8
  %7 = alloca i64, align 8
  %8 = alloca ptr, align 8
  %9 = alloca i32, align 4
  store ptr %0, ptr %5, align 8
  store ptr %1, ptr %6, align 8
  store i64 %2, ptr %7, align 8
  call void @llvm.lifetime.start.p0(i64 8, ptr %8) #7
  %10 = load i64, ptr %7, align 8
  %11 = icmp ne i64 %10, 0
  br i1 %11, label %13, label %12

12:                                               ; preds = %3
  store ptr null, ptr %4, align 8
  store i32 1, ptr %9, align 4
  br label %22

13:                                               ; preds = %3
  %14 = load ptr, ptr %5, align 8
  %15 = load i64, ptr %7, align 8
  %16 = call noalias ptr @wmem_alloc(ptr noundef %14, i64 noundef %15) #8
  store ptr %16, ptr %8, align 8
  %17 = load ptr, ptr %8, align 8
  %18 = load ptr, ptr %6, align 8
  %19 = load i64, ptr %7, align 8
  %20 = call ptr @memcpy.inline(ptr noundef %17, ptr noundef %18, i64 noundef %19) #7
  %21 = load ptr, ptr %8, align 8
  store ptr %21, ptr %4, align 8
  store i32 1, ptr %9, align 4
  br label %22

22:                                               ; preds = %13, %12
  call void @llvm.lifetime.end.p0(i64 8, ptr %8) #7
  %23 = load ptr, ptr %4, align 8
  ret ptr %23
}

; Function Attrs: nocallback nofree nosync nounwind willreturn memory(argmem: readwrite)
declare void @llvm.lifetime.start.p0(i64 immarg, ptr captures(none)) #1

; Function Attrs: null_pointer_is_valid allocsize(1)
declare noalias ptr @wmem_alloc(ptr noundef, i64 noundef) #2

; Function Attrs: alwaysinline nounwind
define internal ptr @memcpy.inline(ptr noalias %0, ptr noalias %1, i64 %2) #3 {
  %4 = alloca ptr, align 8
  %5 = alloca ptr, align 8
  %6 = alloca i64, align 8
  store ptr %0, ptr %4, align 8
  store ptr %1, ptr %5, align 8
  store i64 %2, ptr %6, align 8
  %7 = load ptr, ptr %4, align 8
  %8 = load ptr, ptr %5, align 8
  %9 = load i64, ptr %6, align 8
  %10 = load ptr, ptr %4, align 8
  %11 = call i64 @llvm.objectsize.i64.p0(ptr %10, i1 false, i1 true, i1 true)
  %12 = call ptr @__memcpy_chk(ptr noundef %7, ptr noundef %8, i64 noundef %9, i64 noundef %11) #7
  ret ptr %12
}

; Function Attrs: nocallback nofree nosync nounwind willreturn memory(argmem: readwrite)
declare void @llvm.lifetime.end.p0(i64 immarg, ptr captures(none)) #1

; Function Attrs: nounwind null_pointer_is_valid sspstrong uwtable
define i32 @wmem_compare_int(ptr noundef %0, ptr noundef %1) #4 {
  %3 = alloca ptr, align 8
  %4 = alloca ptr, align 8
  store ptr %0, ptr %3, align 8
  store ptr %1, ptr %4, align 8
  %5 = load ptr, ptr %3, align 8
  %6 = ptrtoint ptr %5 to i64
  %7 = trunc i64 %6 to i32
  %8 = load ptr, ptr %4, align 8
  %9 = ptrtoint ptr %8 to i64
  %10 = trunc i64 %9 to i32
  %11 = sub i32 %7, %10
  ret i32 %11
}

; Function Attrs: nounwind null_pointer_is_valid sspstrong uwtable
define i32 @wmem_compare_uint(ptr noundef %0, ptr noundef %1) #4 {
  %3 = alloca ptr, align 8
  %4 = alloca ptr, align 8
  store ptr %0, ptr %3, align 8
  store ptr %1, ptr %4, align 8
  %5 = load ptr, ptr %3, align 8
  %6 = ptrtoint ptr %5 to i64
  %7 = trunc i64 %6 to i32
  %8 = load ptr, ptr %4, align 8
  %9 = ptrtoint ptr %8 to i64
  %10 = trunc i64 %9 to i32
  %11 = icmp ugt i32 %7, %10
  br i1 %11, label %12, label %13

12:                                               ; preds = %2
  br label %22

13:                                               ; preds = %2
  %14 = load ptr, ptr %3, align 8
  %15 = ptrtoint ptr %14 to i64
  %16 = trunc i64 %15 to i32
  %17 = load ptr, ptr %4, align 8
  %18 = ptrtoint ptr %17 to i64
  %19 = trunc i64 %18 to i32
  %20 = icmp ult i32 %16, %19
  %21 = select i1 %20, i32 -1, i32 0
  br label %22

22:                                               ; preds = %13, %12
  %23 = phi i32 [ 1, %12 ], [ %21, %13 ]
  ret i32 %23
}

; Function Attrs: nounwind null_pointer_is_valid
declare ptr @__memcpy_chk(ptr noundef, ptr noundef, i64 noundef, i64 noundef) #5

; Function Attrs: nocallback nofree nosync nounwind speculatable willreturn memory(none)
declare i64 @llvm.objectsize.i64.p0(ptr, i1 immarg, i1 immarg, i1 immarg) #6


!llvm.module.flags = !{!0, !1, !2, !3, !4, !5}

!0 = !{i32 1, !"wchar_size", i32 4}
!1 = !{i32 8, !"cf-protection-return", i32 1}
!2 = !{i32 8, !"cf-protection-branch", i32 1}
!3 = !{i32 4, !"probe-stack", !"inline-asm"}
!4 = !{i32 8, !"PIC Level", i32 2}
!5 = !{i32 7, !"uwtable", i32 2}
