; ModuleID = 'bench/wireshark/original/wmem_miscutl.ll'
source_filename = "bench/wireshark/original/wmem_miscutl.ll"
target datalayout = "e-m:e-p270:32:32-p271:32:32-p272:64:64-i64:64-i128:128-f80:128-n8:16:32:64-S128"
target triple = "x86_64-pc-linux-gnu"

; Function Attrs: null_pointer_is_valid sspstrong allocsize(2) uwtable
define noalias noundef ptr @wmem_memdup(ptr noundef %0, ptr noundef readonly captures(none) %1, i64 noundef %2) local_unnamed_addr #0 {
  %.not = icmp eq i64 %2, 0
  br i1 %.not, label %7, label %4

4:                                                ; preds = %3
  %5 = tail call noalias ptr @wmem_alloc(ptr noundef %0, i64 noundef %2) #6
  %6 = icmp ne i64 %2, -1
  tail call void @llvm.assume(i1 %6)
  tail call void @llvm.memcpy.p0.p0.i64(ptr noundef align 1 %5, ptr noundef align 1 %1, i64 noundef range(i64 1, 0) %2, i1 noundef false) #7
  br label %7

7:                                                ; preds = %3, %4
  %.0 = phi ptr [ %5, %4 ], [ null, %3 ]
  ret ptr %.0
}

; Function Attrs: null_pointer_is_valid allocsize(1)
declare noalias ptr @wmem_alloc(ptr noundef, i64 noundef) local_unnamed_addr #1

; Function Attrs: mustprogress nofree norecurse nosync nounwind null_pointer_is_valid sspstrong willreturn memory(none) uwtable
define noundef i32 @wmem_compare_int(ptr noundef %0, ptr noundef %1) local_unnamed_addr #2 {
  %3 = ptrtoint ptr %0 to i64
  %4 = trunc i64 %3 to i32
  %5 = ptrtoint ptr %1 to i64
  %6 = trunc i64 %5 to i32
  %7 = sub i32 %4, %6
  ret i32 %7
}

; Function Attrs: mustprogress nofree norecurse nosync nounwind null_pointer_is_valid sspstrong willreturn memory(none) uwtable
define range(i32 -1, 2) i32 @wmem_compare_uint(ptr noundef %0, ptr noundef %1) local_unnamed_addr #2 {
  %3 = ptrtoint ptr %0 to i64
  %4 = trunc i64 %3 to i32
  %5 = ptrtoint ptr %1 to i64
  %6 = trunc i64 %5 to i32
  %7 = tail call i32 @llvm.ucmp.i32.i32(i32 %4, i32 %6)
  ret i32 %7
}

; Function Attrs: nocallback nofree nosync nounwind speculatable willreturn memory(none)
declare i32 @llvm.ucmp.i32.i32(i32, i32) #3

; Function Attrs: nocallback nofree nosync nounwind willreturn memory(inaccessiblemem: write)
declare void @llvm.assume(i1 noundef) #4

; Function Attrs: nocallback nofree nounwind willreturn memory(argmem: readwrite)
declare void @llvm.memcpy.p0.p0.i64(ptr noalias writeonly captures(none), ptr noalias readonly captures(none), i64, i1 immarg) #5


!llvm.module.flags = !{!0, !1, !2, !3, !4, !5}

!0 = !{i32 1, !"wchar_size", i32 4}
!1 = !{i32 8, !"cf-protection-return", i32 1}
!2 = !{i32 8, !"cf-protection-branch", i32 1}
!3 = !{i32 4, !"probe-stack", !"inline-asm"}
!4 = !{i32 8, !"PIC Level", i32 2}
!5 = !{i32 7, !"uwtable", i32 2}
